target datalayout = "e-m:e-p270:32:32-p271:32:32-p272:64:64-i64:64-i128:128-f80:128-n8:16:32:64-S128"
target triple = "x86_64-pc-linux-gnu"

%struct.estats = type { i32, ptr }
%struct.estate = type { i32, ptr }
%struct.fstate = type { ptr, ptr, ptr }
%struct.surface_t = type { i32, ptr, i32, ptr, ptr }

@stderr = external global ptr, align 8
@.str.4 = private unnamed_addr constant [58 x i8] c"integer overflow when trying to allocate %zu * %zu bytes\0A\00", align 1
@.str.5 = private unnamed_addr constant [49 x i8] c"out of memory when trying to allocate %zu bytes\0A\00", align 1

; Function Attrs: inlinehint nounwind uwtable
define internal ptr @gv_calloc(i64 noundef %0, i64 noundef %1) #2 {
  %3 = alloca i64, align 8
  %4 = alloca i64, align 8
  %5 = alloca ptr, align 8
  store i64 %0, ptr %3, align 8, !tbaa !56
  store i64 %1, ptr %4, align 8, !tbaa !56
  %6 = load i64, ptr %3, align 8, !tbaa !56
  %7 = icmp ugt i64 %6, 0
  br i1 %7, label %8, label %18

8:                                                ; preds = %2
  %9 = load i64, ptr %3, align 8, !tbaa !56
  %10 = udiv i64 -1, %9
  %11 = load i64, ptr %4, align 8, !tbaa !56
  %12 = icmp ult i64 %10, %11
  br i1 %12, label %13, label %18

13:                                               ; preds = %8
  %14 = load ptr, ptr @stderr, align 8, !tbaa !58
  %15 = load i64, ptr %3, align 8, !tbaa !56
  %16 = load i64, ptr %4, align 8, !tbaa !56
  %17 = call i32 (ptr, ptr, ...) @fprintf(ptr noundef %14, ptr noundef @.str.4, i64 noundef %15, i64 noundef %16) #12
  call void @graphviz_exit(i32 noundef 1) #13
  unreachable

18:                                               ; preds = %8, %2
  call void @llvm.lifetime.start.p0(i64 8, ptr %5) #12
  %19 = load i64, ptr %3, align 8, !tbaa !56
  %20 = load i64, ptr %4, align 8, !tbaa !56
  %21 = call noalias ptr @calloc(i64 noundef %19, i64 noundef %20) #14
  store ptr %21, ptr %5, align 8, !tbaa !25
  %22 = load i64, ptr %3, align 8, !tbaa !56
  %23 = icmp ugt i64 %22, 0
  br i1 %23, label %24, label %36

24:                                               ; preds = %18
  %25 = load i64, ptr %4, align 8, !tbaa !56
  %26 = icmp ugt i64 %25, 0
  br i1 %26, label %27, label %36

27:                                               ; preds = %24
  %28 = load ptr, ptr %5, align 8, !tbaa !25
  %29 = icmp eq ptr %28, null
  br i1 %29, label %30, label %36

30:                                               ; preds = %27
  %31 = load ptr, ptr @stderr, align 8, !tbaa !58
  %32 = load i64, ptr %3, align 8, !tbaa !56
  %33 = load i64, ptr %4, align 8, !tbaa !56
  %34 = mul i64 %32, %33
  %35 = call i32 (ptr, ptr, ...) @fprintf(ptr noundef %31, ptr noundef @.str.5, i64 noundef %34) #12
  call void @graphviz_exit(i32 noundef 1) #13
  unreachable

36:                                               ; preds = %27, %24, %18
  %37 = load ptr, ptr %5, align 8, !tbaa !25
  call void @llvm.lifetime.end.p0(i64 8, ptr %5) #12
  ret ptr %37
}

; Function Attrs: nounwind uwtable
define internal void @edgeStats(ptr noundef %0, ptr noundef %1) #0 {
  %3 = alloca ptr, align 8
  %4 = alloca ptr, align 8
  store ptr %0, ptr %3, align 8, !tbaa !12
  store ptr %1, ptr %4, align 8, !tbaa !25
  %5 = load ptr, ptr %3, align 8, !tbaa !12
  %6 = load ptr, ptr %4, align 8, !tbaa !25
  call void @gts_surface_foreach_edge(ptr noundef %5, ptr noundef @cnt_edge, ptr noundef %6)
  ret void
}

; Function Attrs: inlinehint nounwind uwtable
define internal ptr @gv_alloc(i64 noundef %0) #2 {
  %2 = alloca i64, align 8
  store i64 %0, ptr %2, align 8, !tbaa !56
  %3 = load i64, ptr %2, align 8, !tbaa !56
  %4 = call ptr @gv_calloc(i64 noundef 1, i64 noundef %3)
  ret ptr %4
}

; Function Attrs: nounwind uwtable
define ptr @mkSurface(ptr noundef %0, ptr noundef %1, i32 noundef %2, ptr noundef %3, i32 noundef %4) #0 {
  %6 = alloca ptr, align 8
  %7 = alloca ptr, align 8
  %8 = alloca ptr, align 8
  %9 = alloca i32, align 4
  %10 = alloca ptr, align 8
  %11 = alloca i32, align 4
  %12 = alloca ptr, align 8
  %13 = alloca %struct.estats, align 8
  %14 = alloca %struct.estate, align 8
  %15 = alloca %struct.fstate, align 8
  %16 = alloca i32, align 4
  %17 = alloca i32, align 4
  %18 = alloca ptr, align 8
  %19 = alloca ptr, align 8
  %20 = alloca ptr, align 8
  store ptr %0, ptr %7, align 8, !tbaa !3
  store ptr %1, ptr %8, align 8, !tbaa !3
  store i32 %2, ptr %9, align 4, !tbaa !8
  store ptr %3, ptr %10, align 8, !tbaa !10
  store i32 %4, ptr %11, align 4, !tbaa !8
  call void @llvm.lifetime.start.p0(i64 8, ptr %12) #12
  %21 = load ptr, ptr %7, align 8, !tbaa !3
  %22 = load ptr, ptr %8, align 8, !tbaa !3
  %23 = load i32, ptr %9, align 4, !tbaa !8
  %24 = load ptr, ptr %10, align 8, !tbaa !10
  %25 = load i32, ptr %11, align 4, !tbaa !8
  %26 = call ptr @tri(ptr noundef %21, ptr noundef %22, i32 noundef %23, ptr noundef %24, i32 noundef %25, i32 noundef 1)
  store ptr %26, ptr %12, align 8, !tbaa !12
  call void @llvm.lifetime.start.p0(i64 16, ptr %13) #12
  call void @llvm.lifetime.start.p0(i64 16, ptr %14) #12
  call void @llvm.lifetime.start.p0(i64 24, ptr %15) #12
  call void @llvm.lifetime.start.p0(i64 4, ptr %16) #12
  store i32 0, ptr %16, align 4, !tbaa !8
  %27 = load ptr, ptr %12, align 8, !tbaa !12
  %28 = icmp ne ptr %27, null
  br i1 %28, label %30, label %29

29:                                               ; preds = %5
  store ptr null, ptr %6, align 8
  store i32 1, ptr %17, align 4
  br label %76

30:                                               ; preds = %5
  call void @llvm.lifetime.start.p0(i64 8, ptr %18) #12
  %31 = call ptr @gv_alloc(i64 noundef 40)
  store ptr %31, ptr %18, align 8, !tbaa !25
  %32 = getelementptr inbounds nuw %struct.estats, ptr %13, i32 0, i32 0
  store i32 0, ptr %32, align 8, !tbaa !14
  %33 = getelementptr inbounds nuw %struct.estats, ptr %13, i32 0, i32 1
  store ptr null, ptr %33, align 8, !tbaa !16
  %34 = load ptr, ptr %12, align 8, !tbaa !12
  call void @edgeStats(ptr noundef %34, ptr noundef %13)
  %35 = getelementptr inbounds nuw %struct.estats, ptr %13, i32 0, i32 0
  %36 = load i32, ptr %35, align 8, !tbaa !14
  store i32 %36, ptr %11, align 4, !tbaa !8
  %37 = load i32, ptr %11, align 4, !tbaa !8
  %38 = mul nsw i32 2, %37
  %39 = sext i32 %38 to i64
  %40 = call ptr @gv_calloc(i64 noundef %39, i64 noundef 4)
  store ptr %40, ptr %10, align 8, !tbaa !10
  %41 = getelementptr inbounds nuw %struct.estate, ptr %14, i32 0, i32 0
  store i32 0, ptr %41, align 8, !tbaa !17
  %42 = load ptr, ptr %10, align 8, !tbaa !10
  %43 = getelementptr inbounds nuw %struct.estate, ptr %14, i32 0, i32 1
  store ptr %42, ptr %43, align 8, !tbaa !19
  %44 = load ptr, ptr %12, align 8, !tbaa !12
  call void @gts_surface_foreach_edge(ptr noundef %44, ptr noundef @addEdge, ptr noundef %14)
  %45 = load ptr, ptr %12, align 8, !tbaa !12
  call void @gts_surface_foreach_face(ptr noundef %45, ptr noundef @cntFace, ptr noundef %16)
  call void @llvm.lifetime.start.p0(i64 8, ptr %19) #12
  %46 = load i32, ptr %16, align 4, !tbaa !8
  %47 = mul nsw i32 3, %46
  %48 = sext i32 %47 to i64
  %49 = call ptr @gv_calloc(i64 noundef %48, i64 noundef 4)
  store ptr %49, ptr %19, align 8, !tbaa !10
  call void @llvm.lifetime.start.p0(i64 8, ptr %20) #12
  %50 = load i32, ptr %16, align 4, !tbaa !8
  %51 = mul nsw i32 3, %50
  %52 = sext i32 %51 to i64
  %53 = call ptr @gv_calloc(i64 noundef %52, i64 noundef 4)
  store ptr %53, ptr %20, align 8, !tbaa !10
  %54 = load ptr, ptr %19, align 8, !tbaa !10
  %55 = getelementptr inbounds nuw %struct.fstate, ptr %15, i32 0, i32 1
  store ptr %54, ptr %55, align 8, !tbaa !65
  %56 = load ptr, ptr %20, align 8, !tbaa !10
  %57 = getelementptr inbounds nuw %struct.fstate, ptr %15, i32 0, i32 2
  store ptr %56, ptr %57, align 8, !tbaa !67
  %58 = load ptr, ptr %12, align 8, !tbaa !12
  call void @gts_surface_foreach_face(ptr noundef %58, ptr noundef @addFace, ptr noundef %15)
  %59 = load i32, ptr %11, align 4, !tbaa !8
  %60 = load ptr, ptr %18, align 8, !tbaa !25
  %61 = getelementptr inbounds nuw %struct.surface_t, ptr %60, i32 0, i32 0
  store i32 %59, ptr %61, align 8, !tbaa !68
  %62 = load ptr, ptr %10, align 8, !tbaa !10
  %63 = load ptr, ptr %18, align 8, !tbaa !25
  %64 = getelementptr inbounds nuw %struct.surface_t, ptr %63, i32 0, i32 1
  store ptr %62, ptr %64, align 8, !tbaa !70
  %65 = load i32, ptr %16, align 4, !tbaa !8
  %66 = load ptr, ptr %18, align 8, !tbaa !25
  %67 = getelementptr inbounds nuw %struct.surface_t, ptr %66, i32 0, i32 2
  store i32 %65, ptr %67, align 8, !tbaa !71
  %68 = load ptr, ptr %19, align 8, !tbaa !10
  %69 = load ptr, ptr %18, align 8, !tbaa !25
  %70 = getelementptr inbounds nuw %struct.surface_t, ptr %69, i32 0, i32 3
  store ptr %68, ptr %70, align 8, !tbaa !72
  %71 = load ptr, ptr %20, align 8, !tbaa !10
  %72 = load ptr, ptr %18, align 8, !tbaa !25
  %73 = getelementptr inbounds nuw %struct.surface_t, ptr %72, i32 0, i32 4
  store ptr %71, ptr %73, align 8, !tbaa !73
  %74 = load ptr, ptr %12, align 8, !tbaa !12
  call void @gts_object_destroy(ptr noundef %74)
  %75 = load ptr, ptr %18, align 8, !tbaa !25
  store ptr %75, ptr %6, align 8
  store i32 1, ptr %17, align 4
  call void @llvm.lifetime.end.p0(i64 8, ptr %20) #12
  call void @llvm.lifetime.end.p0(i64 8, ptr %19) #12
  call void @llvm.lifetime.end.p0(i64 8, ptr %18) #12
  br label %76

76:                                               ; preds = %30, %29
  call void @llvm.lifetime.end.p0(i64 4, ptr %16) #12
  call void @llvm.lifetime.end.p0(i64 24, ptr %15) #12
  call void @llvm.lifetime.end.p0(i64 16, ptr %14) #12
  call void @llvm.lifetime.end.p0(i64 16, ptr %13) #12
  call void @llvm.lifetime.end.p0(i64 8, ptr %12) #12
  %77 = load ptr, ptr %6, align 8
  ret ptr %77
}