; Function Attrs: nounwind uwtable
define noalias noundef ptr @mkSurface(ptr noundef readonly captures(none) %0, ptr noundef readonly captures(none) %1, i32 noundef %2, ptr noundef readonly captures(none) %3, i32 noundef %4) local_unnamed_addr #0 {
  %6 = alloca %struct.estats, align 8
  %7 = alloca %struct.estate, align 8
  %8 = alloca %struct.fstate, align 8
  %9 = alloca i32, align 4
  %10 = tail call fastcc ptr @tri(ptr noundef %0, ptr noundef %1, i32 noundef %2, ptr noundef %3, i32 noundef %4, i32 noundef 1)
  call void @llvm.lifetime.start.p0(i64 16, ptr nonnull %6) #19
  call void @llvm.lifetime.start.p0(i64 16, ptr nonnull %7) #19
  call void @llvm.lifetime.start.p0(i64 24, ptr nonnull %8) #19
  call void @llvm.lifetime.start.p0(i64 4, ptr nonnull %9) #19
  store i32 0, ptr %9, align 4, !tbaa !10
  %.not = icmp eq ptr %10, null
  br i1 %.not, label %66, label %11

11:                                               ; preds = %5
  %12 = tail call noalias dereferenceable_or_null(40) ptr @calloc(i64 noundef 1, i64 noundef 40) #22
  %13 = icmp eq ptr %12, null
  br i1 %13, label %14, label %gv_alloc.exit

14:                                               ; preds = %11
  %15 = load ptr, ptr @stderr, align 8, !tbaa !11
  %16 = tail call i32 (ptr, ptr, ...) @fprintf(ptr noundef %15, ptr noundef nonnull @.str.5, i64 noundef 40) #20
  tail call fastcc void @graphviz_exit() #21
  unreachable

gv_alloc.exit:                                    ; preds = %11
  store i32 0, ptr %6, align 8, !tbaa !3
  %17 = getelementptr inbounds nuw i8, ptr %6, i64 8
  store ptr null, ptr %17, align 8, !tbaa !9
  call void @gts_surface_foreach_edge(ptr noundef nonnull %10, ptr noundef nonnull @cnt_edge, ptr noundef nonnull %6) #19
  %18 = load i32, ptr %6, align 8, !tbaa !3
  %19 = shl nsw i32 %18, 1
  %20 = sext i32 %19 to i64
  %.not.i = icmp eq i32 %18, 0
  br i1 %.not.i, label %.thread.i, label %22

.thread.i:                                        ; preds = %gv_alloc.exit
  %21 = call noalias ptr @calloc(i64 noundef 0, i64 noundef 4) #22
  br label %gv_calloc.exit

22:                                               ; preds = %gv_alloc.exit
  %mul.ov.i = icmp slt i32 %18, 0
  br i1 %mul.ov.i, label %23, label %26

23:                                               ; preds = %22
  %24 = load ptr, ptr @stderr, align 8, !tbaa !11
  %25 = call i32 (ptr, ptr, ...) @fprintf(ptr noundef %24, ptr noundef nonnull @.str.4, i64 noundef range(i64 -2147483648, 2147483648) %20, i64 noundef 4) #20
  call fastcc void @graphviz_exit() #21
  unreachable

26:                                               ; preds = %22
  %27 = call noalias ptr @calloc(i64 noundef range(i64 -2147483648, 2147483648) %20, i64 noundef 4) #22
  %28 = icmp eq ptr %27, null
  br i1 %28, label %29, label %gv_calloc.exit

29:                                               ; preds = %26
  %30 = load ptr, ptr @stderr, align 8, !tbaa !11
  %31 = shl nuw nsw i64 %20, 2
  %32 = call i32 (ptr, ptr, ...) @fprintf(ptr noundef %30, ptr noundef nonnull @.str.5, i64 noundef %31) #20
  call fastcc void @graphviz_exit() #21
  unreachable

gv_calloc.exit:                                   ; preds = %.thread.i, %26
  %33 = phi ptr [ %21, %.thread.i ], [ %27, %26 ]
  store i32 0, ptr %7, align 8, !tbaa !13
  %34 = getelementptr inbounds nuw i8, ptr %7, i64 8
  store ptr %33, ptr %34, align 8, !tbaa !16
  call void @gts_surface_foreach_edge(ptr noundef nonnull %10, ptr noundef nonnull @addEdge, ptr noundef nonnull %7) #19
  call void @gts_surface_foreach_face(ptr noundef nonnull %10, ptr noundef nonnull @cntFace, ptr noundef nonnull %9) #19
  %35 = load i32, ptr %9, align 4, !tbaa !10
  %36 = mul nsw i32 %35, 3
  %37 = sext i32 %36 to i64
  %.not.i26 = icmp eq i32 %35, 0
  br i1 %.not.i26, label %.thread.i34, label %38

38:                                               ; preds = %gv_calloc.exit
  %mul.ov.i28 = icmp slt i32 %35, 0
  br i1 %mul.ov.i28, label %39, label %42

39:                                               ; preds = %38
  %40 = load ptr, ptr @stderr, align 8, !tbaa !11
  %41 = call i32 (ptr, ptr, ...) @fprintf(ptr noundef %40, ptr noundef nonnull @.str.4, i64 noundef range(i64 -2147483648, 2147483648) %37, i64 noundef 4) #20
  call fastcc void @graphviz_exit() #21
  unreachable

42:                                               ; preds = %38
  %43 = call noalias ptr @calloc(i64 noundef range(i64 -2147483648, 2147483648) %37, i64 noundef 4) #22
  %44 = icmp eq ptr %43, null
  br i1 %44, label %45, label %gv_calloc.exit30

45:                                               ; preds = %42
  %46 = load ptr, ptr @stderr, align 8, !tbaa !11
  %47 = shl nuw nsw i64 %37, 2
  %48 = call i32 (ptr, ptr, ...) @fprintf(ptr noundef %46, ptr noundef nonnull @.str.5, i64 noundef %47) #20
  call fastcc void @graphviz_exit() #21
  unreachable

.thread.i34:                                      ; preds = %gv_calloc.exit
  %49 = call noalias ptr @calloc(i64 noundef 0, i64 noundef 4) #22
  %50 = call noalias ptr @calloc(i64 noundef 0, i64 noundef 4) #22
  br label %gv_calloc.exit35

gv_calloc.exit30:                                 ; preds = %42
  %51 = call noalias ptr @calloc(i64 noundef range(i64 -2147483648, 2147483648) %37, i64 noundef 4) #22
  %52 = icmp eq ptr %51, null
  br i1 %52, label %53, label %gv_calloc.exit35

53:                                               ; preds = %gv_calloc.exit30
  %54 = load ptr, ptr @stderr, align 8, !tbaa !11
  %55 = shl nuw nsw i64 %37, 2
  %56 = call i32 (ptr, ptr, ...) @fprintf(ptr noundef %54, ptr noundef nonnull @.str.5, i64 noundef %55) #20
  call fastcc void @graphviz_exit() #21
  unreachable

gv_calloc.exit35:                                 ; preds = %.thread.i34, %gv_calloc.exit30
  %57 = phi ptr [ %49, %.thread.i34 ], [ %43, %gv_calloc.exit30 ]
  %58 = phi ptr [ %50, %.thread.i34 ], [ %51, %gv_calloc.exit30 ]
  %59 = getelementptr inbounds nuw i8, ptr %8, i64 8
  store ptr %57, ptr %59, align 8, !tbaa !53
  %60 = getelementptr inbounds nuw i8, ptr %8, i64 16
  store ptr %58, ptr %60, align 8, !tbaa !56
  call void @gts_surface_foreach_face(ptr noundef nonnull %10, ptr noundef nonnull @addFace, ptr noundef nonnull %8) #19
  store i32 %18, ptr %12, align 8, !tbaa !57
  %61 = getelementptr inbounds nuw i8, ptr %12, i64 8
  store ptr %33, ptr %61, align 8, !tbaa !59
  %62 = load i32, ptr %9, align 4, !tbaa !10
  %63 = getelementptr inbounds nuw i8, ptr %12, i64 16
  store i32 %62, ptr %63, align 8, !tbaa !60
  %64 = getelementptr inbounds nuw i8, ptr %12, i64 24
  store ptr %57, ptr %64, align 8, !tbaa !61
  %65 = getelementptr inbounds nuw i8, ptr %12, i64 32
  store ptr %58, ptr %65, align 8, !tbaa !62
  call void @gts_object_destroy(ptr noundef nonnull %10) #19
  br label %66

66:                                               ; preds = %5, %gv_calloc.exit35
  %.0 = phi ptr [ %12, %gv_calloc.exit35 ], [ null, %5 ]
  call void @llvm.lifetime.end.p0(i64 4, ptr nonnull %9) #19
  call void @llvm.lifetime.end.p0(i64 24, ptr nonnull %8) #19
  call void @llvm.lifetime.end.p0(i64 16, ptr nonnull %7) #19
  call void @llvm.lifetime.end.p0(i64 16, ptr nonnull %6) #19
  ret ptr %.0
}